target datalayout = "e-m:e-p270:32:32-p271:32:32-p272:64:64-i64:64-i128:128-f80:128-n8:16:32:64-S128"
target triple = "x86_64-pc-linux-gnu"

%struct._generic_ARKInterp = type { ptr, ptr }
%struct._ARKInterpContent_Lagrange = type { i32, i32, ptr, ptr, i32, double }

; Function Attrs: nounwind uwtable
define double @LBasisD(ptr noundef %0, i32 noundef %1, double noundef %2) #0 {
  %4 = alloca ptr, align 8
  %5 = alloca i32, align 4
  %6 = alloca double, align 8
  %7 = alloca i32, align 4
  %8 = alloca i32, align 4
  %9 = alloca double, align 8
  %10 = alloca double, align 8
  store ptr %0, ptr %4, align 8, !tbaa !8
  store i32 %1, ptr %5, align 4, !tbaa !24
  store double %2, ptr %6, align 8, !tbaa !27
  call void @llvm.lifetime.start.p0(i64 4, ptr %7) #7
  call void @llvm.lifetime.start.p0(i64 4, ptr %8) #7
  call void @llvm.lifetime.start.p0(i64 8, ptr %9) #7
  call void @llvm.lifetime.start.p0(i64 8, ptr %10) #7
  store double 0.000000e+00, ptr %9, align 8, !tbaa !27
  store i32 0, ptr %7, align 4, !tbaa !24
  br label %11

11:                                               ; preds = %104, %3
  %12 = load i32, ptr %7, align 4, !tbaa !24
  %13 = load ptr, ptr %4, align 8, !tbaa !8
  %14 = getelementptr inbounds nuw %struct._generic_ARKInterp, ptr %13, i32 0, i32 0
  %15 = load ptr, ptr %14, align 8, !tbaa !35
  %16 = getelementptr inbounds nuw %struct._ARKInterpContent_Lagrange, ptr %15, i32 0, i32 4
  %17 = load i32, ptr %16, align 8, !tbaa !67
  %18 = icmp slt i32 %12, %17
  br i1 %18, label %19, label %107

19:                                               ; preds = %11
  %20 = load i32, ptr %7, align 4, !tbaa !24
  %21 = load i32, ptr %5, align 4, !tbaa !24
  %22 = icmp eq i32 %20, %21
  br i1 %22, label %23, label %24

23:                                               ; preds = %19
  br label %104

24:                                               ; preds = %19
  store double 1.000000e+00, ptr %10, align 8, !tbaa !27
  store i32 0, ptr %8, align 4, !tbaa !24
  br label %25

25:                                               ; preds = %77, %24
  %26 = load i32, ptr %8, align 4, !tbaa !24
  %27 = load ptr, ptr %4, align 8, !tbaa !8
  %28 = getelementptr inbounds nuw %struct._generic_ARKInterp, ptr %27, i32 0, i32 0
  %29 = load ptr, ptr %28, align 8, !tbaa !35
  %30 = getelementptr inbounds nuw %struct._ARKInterpContent_Lagrange, ptr %29, i32 0, i32 4
  %31 = load i32, ptr %30, align 8, !tbaa !67
  %32 = icmp slt i32 %26, %31
  br i1 %32, label %33, label %80

33:                                               ; preds = %25
  %34 = load i32, ptr %8, align 4, !tbaa !24
  %35 = load i32, ptr %5, align 4, !tbaa !24
  %36 = icmp eq i32 %34, %35
  br i1 %36, label %37, label %38

37:                                               ; preds = %33
  br label %77

38:                                               ; preds = %33
  %39 = load i32, ptr %8, align 4, !tbaa !24
  %40 = load i32, ptr %7, align 4, !tbaa !24
  %41 = icmp eq i32 %39, %40
  br i1 %41, label %42, label %43

42:                                               ; preds = %38
  br label %77

43:                                               ; preds = %38
  %44 = load double, ptr %6, align 8, !tbaa !27
  %45 = load ptr, ptr %4, align 8, !tbaa !8
  %46 = getelementptr inbounds nuw %struct._generic_ARKInterp, ptr %45, i32 0, i32 0
  %47 = load ptr, ptr %46, align 8, !tbaa !35
  %48 = getelementptr inbounds nuw %struct._ARKInterpContent_Lagrange, ptr %47, i32 0, i32 3
  %49 = load ptr, ptr %48, align 8, !tbaa !68
  %50 = load i32, ptr %8, align 4, !tbaa !24
  %51 = sext i32 %50 to i64
  %52 = getelementptr inbounds double, ptr %49, i64 %51
  %53 = load double, ptr %52, align 8, !tbaa !27
  %54 = fsub double %44, %53
  %55 = load ptr, ptr %4, align 8, !tbaa !8
  %56 = getelementptr inbounds nuw %struct._generic_ARKInterp, ptr %55, i32 0, i32 0
  %57 = load ptr, ptr %56, align 8, !tbaa !35
  %58 = getelementptr inbounds nuw %struct._ARKInterpContent_Lagrange, ptr %57, i32 0, i32 3
  %59 = load ptr, ptr %58, align 8, !tbaa !68
  %60 = load i32, ptr %5, align 4, !tbaa !24
  %61 = sext i32 %60 to i64
  %62 = getelementptr inbounds double, ptr %59, i64 %61
  %63 = load double, ptr %62, align 8, !tbaa !27
  %64 = load ptr, ptr %4, align 8, !tbaa !8
  %65 = getelementptr inbounds nuw %struct._generic_ARKInterp, ptr %64, i32 0, i32 0
  %66 = load ptr, ptr %65, align 8, !tbaa !35
  %67 = getelementptr inbounds nuw %struct._ARKInterpContent_Lagrange, ptr %66, i32 0, i32 3
  %68 = load ptr, ptr %67, align 8, !tbaa !68
  %69 = load i32, ptr %8, align 4, !tbaa !24
  %70 = sext i32 %69 to i64
  %71 = getelementptr inbounds double, ptr %68, i64 %70
  %72 = load double, ptr %71, align 8, !tbaa !27
  %73 = fsub double %63, %72
  %74 = fdiv double %54, %73
  %75 = load double, ptr %10, align 8, !tbaa !27
  %76 = fmul double %75, %74
  store double %76, ptr %10, align 8, !tbaa !27
  br label %77

77:                                               ; preds = %43, %42, %37
  %78 = load i32, ptr %8, align 4, !tbaa !24
  %79 = add nsw i32 %78, 1
  store i32 %79, ptr %8, align 4, !tbaa !24
  br label %25

80:                                               ; preds = %25
  %81 = load double, ptr %10, align 8, !tbaa !27
  %82 = load ptr, ptr %4, align 8, !tbaa !8
  %83 = getelementptr inbounds nuw %struct._generic_ARKInterp, ptr %82, i32 0, i32 0
  %84 = load ptr, ptr %83, align 8, !tbaa !35
  %85 = getelementptr inbounds nuw %struct._ARKInterpContent_Lagrange, ptr %84, i32 0, i32 3
  %86 = load ptr, ptr %85, align 8, !tbaa !68
  %87 = load i32, ptr %5, align 4, !tbaa !24
  %88 = sext i32 %87 to i64
  %89 = getelementptr inbounds double, ptr %86, i64 %88
  %90 = load double, ptr %89, align 8, !tbaa !27
  %91 = load ptr, ptr %4, align 8, !tbaa !8
  %92 = getelementptr inbounds nuw %struct._generic_ARKInterp, ptr %91, i32 0, i32 0
  %93 = load ptr, ptr %92, align 8, !tbaa !35
  %94 = getelementptr inbounds nuw %struct._ARKInterpContent_Lagrange, ptr %93, i32 0, i32 3
  %95 = load ptr, ptr %94, align 8, !tbaa !68
  %96 = load i32, ptr %7, align 4, !tbaa !24
  %97 = sext i32 %96 to i64
  %98 = getelementptr inbounds double, ptr %95, i64 %97
  %99 = load double, ptr %98, align 8, !tbaa !27
  %100 = fsub double %90, %99
  %101 = fdiv double %81, %100
  %102 = load double, ptr %9, align 8, !tbaa !27
  %103 = fadd double %102, %101
  store double %103, ptr %9, align 8, !tbaa !27
  br label %104

104:                                              ; preds = %80, %23
  %105 = load i32, ptr %7, align 4, !tbaa !24
  %106 = add nsw i32 %105, 1
  store i32 %106, ptr %7, align 4, !tbaa !24
  br label %11

107:                                              ; preds = %11
  %108 = load double, ptr %9, align 8, !tbaa !27
  call void @llvm.lifetime.end.p0(i64 8, ptr %10) #7
  call void @llvm.lifetime.end.p0(i64 8, ptr %9) #7
  call void @llvm.lifetime.end.p0(i64 4, ptr %8) #7
  call void @llvm.lifetime.end.p0(i64 4, ptr %7) #7
  ret double %108
}