; Function Attrs: nofree norecurse nosync nounwind memory(read, inaccessiblemem: none) uwtable
define double @LBasisD(ptr noundef readonly captures(none) %0, i32 noundef %1, double noundef %2) local_unnamed_addr #10 {
  %4 = load ptr, ptr %0, align 8, !tbaa !17
  %5 = getelementptr inbounds nuw i8, ptr %4, i64 24
  %6 = load i32, ptr %5, align 8, !tbaa !57
  %7 = icmp sgt i32 %6, 0
  br i1 %7, label %.lr.ph36.split.us.preheader, label %._crit_edge37

.lr.ph36.split.us.preheader:                      ; preds = %3
  %8 = getelementptr inbounds nuw i8, ptr %4, i64 16
  %9 = sext i32 %1 to i64
  %10 = zext i32 %1 to i64
  %wide.trip.count44 = zext nneg i32 %6 to i64
  br label %.lr.ph36.split.us

.lr.ph36.split.us:                                ; preds = %.lr.ph36.split.us.preheader, %25
  %indvars.iv41 = phi i64 [ 0, %.lr.ph36.split.us.preheader ], [ %indvars.iv.next42, %25 ]
  %.02634.us = phi double [ 0.000000e+00, %.lr.ph36.split.us.preheader ], [ %.127.us, %25 ]
  %11 = icmp eq i64 %indvars.iv41, %10
  br i1 %11, label %25, label %.preheader.us

.preheader.us:                                    ; preds = %.lr.ph36.split.us, %24
  %indvars.iv = phi i64 [ %indvars.iv.next, %24 ], [ 0, %.lr.ph36.split.us ]
  %.032.us = phi double [ %.1.us, %24 ], [ 1.000000e+00, %.lr.ph36.split.us ]
  %12 = icmp eq i64 %indvars.iv, %10
  %13 = icmp eq i64 %indvars.iv, %indvars.iv41
  %or.cond.us = or i1 %12, %13
  br i1 %or.cond.us, label %24, label %14

14:                                               ; preds = %.preheader.us
  %15 = load ptr, ptr %8, align 8, !tbaa !58
  %16 = getelementptr inbounds nuw double, ptr %15, i64 %indvars.iv
  %17 = load double, ptr %16, align 8, !tbaa !47
  %18 = fsub double %2, %17
  %19 = getelementptr inbounds double, ptr %15, i64 %9
  %20 = load double, ptr %19, align 8, !tbaa !47
  %21 = fsub double %20, %17
  %22 = fdiv double %18, %21
  %23 = fmul double %.032.us, %22
  br label %24

24:                                               ; preds = %14, %.preheader.us
  %.1.us = phi double [ %.032.us, %.preheader.us ], [ %23, %14 ]
  %indvars.iv.next = add nuw nsw i64 %indvars.iv, 1
  %exitcond.not = icmp eq i64 %indvars.iv.next, %wide.trip.count44
  br i1 %exitcond.not, label %._crit_edge.us, label %.preheader.us

25:                                               ; preds = %._crit_edge.us, %.lr.ph36.split.us
  %.127.us = phi double [ %.02634.us, %.lr.ph36.split.us ], [ %33, %._crit_edge.us ]
  %indvars.iv.next42 = add nuw nsw i64 %indvars.iv41, 1
  %exitcond45.not = icmp eq i64 %indvars.iv.next42, %wide.trip.count44
  br i1 %exitcond45.not, label %._crit_edge37, label %.lr.ph36.split.us

._crit_edge.us:                                   ; preds = %24
  %26 = load ptr, ptr %8, align 8, !tbaa !58
  %27 = getelementptr inbounds double, ptr %26, i64 %9
  %28 = load double, ptr %27, align 8, !tbaa !47
  %29 = getelementptr inbounds nuw double, ptr %26, i64 %indvars.iv41
  %30 = load double, ptr %29, align 8, !tbaa !47
  %31 = fsub double %28, %30
  %32 = fdiv double %.1.us, %31
  %33 = fadd double %.02634.us, %32
  br label %25

._crit_edge37:                                    ; preds = %25, %3
  %.026.lcssa = phi double [ 0.000000e+00, %3 ], [ %.127.us, %25 ]
  ret double %.026.lcssa
}